; Function Attrs: mustprogress null_pointer_is_valid sspstrong uwtable
define void @_ZN15RtpPlayerDialog20showGraphContextMenuERK6QPoint(ptr noundef readonly align 8 captures(none) dereferenceable_or_null(472) %0, ptr noundef align 4 dereferenceable(8) %1) #0 align 2 {
  %3 = alloca %class.QPoint, align 8
  %4 = getelementptr inbounds nuw i8, ptr %0, i64 152
  %5 = load ptr, ptr %4, align 8
  call void @llvm.lifetime.start.p0(i64 8, ptr nonnull %3) #26
  %6 = getelementptr inbounds nuw i8, ptr %0, i64 144
  %7 = load ptr, ptr %6, align 8
  %8 = getelementptr inbounds nuw i8, ptr %7, i64 312
  %9 = load ptr, ptr %8, align 8
  %10 = tail call i64 @_ZNK7QWidget11mapToGlobalERK6QPoint(ptr noundef align 8 dereferenceable_or_null(40) %9, ptr noundef align 4 dereferenceable(8) %1)
  store i64 %10, ptr %3, align 8
  call void @_ZN5QMenu5popupERK6QPointP7QAction(ptr noundef align 8 dereferenceable_or_null(40) %5, ptr noundef nonnull align 4 dereferenceable(8) %3, ptr noundef null)
  call void @llvm.lifetime.end.p0(i64 8, ptr nonnull %3) #26
  ret void
}